target datalayout = "e-m:e-p270:32:32-p271:32:32-p272:64:64-i64:64-i128:128-f80:128-n8:16:32:64-S128"
target triple = "x86_64-unknown-linux-gnu"

%"class.Imath_3_2::Vec2" = type { i32, i32 }
%"class.Imf_3_2::Image" = type { ptr, %"class.Imath_3_2::Box", i32, i32, %"class.std::map", %"class.Imf_3_2::Array2D" }
%"class.Imath_3_2::Box" = type { %"class.Imath_3_2::Vec2", %"class.Imath_3_2::Vec2" }
%"class.std::map" = type { %"class.std::_Rb_tree" }
%"class.std::_Rb_tree" = type { %"struct.std::_Rb_tree<std::__cxx11::basic_string<char>, std::pair<const std::__cxx11::basic_string<char>, Imf_3_2::Image::ChannelInfo>, std::_Select1st<std::pair<const std::__cxx11::basic_string<char>, Imf_3_2::Image::ChannelInfo>>, std::less<std::__cxx11::basic_string<char>>>::_Rb_tree_impl" }
%"struct.std::_Rb_tree<std::__cxx11::basic_string<char>, std::pair<const std::__cxx11::basic_string<char>, Imf_3_2::Image::ChannelInfo>, std::_Select1st<std::pair<const std::__cxx11::basic_string<char>, Imf_3_2::Image::ChannelInfo>>, std::less<std::__cxx11::basic_string<char>>>::_Rb_tree_impl" = type { %"struct.std::_Rb_tree_key_compare", %"struct.std::_Rb_tree_header" }
%"struct.std::_Rb_tree_key_compare" = type { %"struct.std::less" }
%"struct.std::less" = type { i8 }
%"struct.std::_Rb_tree_header" = type { %"struct.std::_Rb_tree_node_base", i64 }
%"struct.std::_Rb_tree_node_base" = type { i32, ptr, ptr, ptr }
%"class.Imf_3_2::Array2D" = type { i64, i64, ptr }
%"class.std::__cxx11::basic_stringstream" = type { %"class.std::basic_iostream.base", %"class.std::__cxx11::basic_stringbuf", %"class.std::basic_ios" }
%"class.std::basic_iostream.base" = type { %"class.std::basic_istream.base", %"class.std::basic_ostream.base" }
%"class.std::basic_istream.base" = type { ptr, i64 }
%"class.std::basic_ostream.base" = type { ptr }
%"class.std::__cxx11::basic_stringbuf" = type { %"class.std::basic_streambuf", i32, %"class.std::__cxx11::basic_string" }
%"class.std::basic_streambuf" = type { ptr, ptr, ptr, ptr, ptr, ptr, ptr, %"class.std::locale" }
%"class.std::locale" = type { ptr }
%"class.std::__cxx11::basic_string" = type { %"struct.std::__cxx11::basic_string<char>::_Alloc_hider", i64, %union.anon }
%"struct.std::__cxx11::basic_string<char>::_Alloc_hider" = type { ptr }
%union.anon = type { i64, [8 x i8] }
%"class.std::basic_ios" = type { %"class.std::ios_base", ptr, i8, i8, ptr, ptr, ptr, ptr }
%"class.std::ios_base" = type { ptr, i64, i64, i32, i32, i32, ptr, %"struct.std::ios_base::_Words", [8 x %"struct.std::ios_base::_Words"], i32, ptr, %"class.std::locale" }
%"struct.std::ios_base::_Words" = type { ptr, i64 }

@.str.2 = private unnamed_addr constant [3 x i8] c", \00", align 1
@.str.3 = private unnamed_addr constant [3 x i8] c").\00", align 1
@_ZTIN7Iex_3_26ArgExcE = external constant ptr
@.str.18 = private unnamed_addr constant [54 x i8] c"Cannot access image level with invalid level number (\00", align 1

; Function Attrs: mustprogress nounwind uwtable
define linkonce_odr hidden noundef ptr @_ZNK7Imf_3_27Array2DIPNS_10ImageLevelEEixEl(ptr noundef nonnull align 8 dereferenceable(24) %this, i64 noundef %x) #5 comdat align 2 {
entry:
  %this.addr = alloca ptr, align 8
  %x.addr = alloca i64, align 8
  store ptr %this, ptr %this.addr, align 8
  store i64 %x, ptr %x.addr, align 8
  %this1 = load ptr, ptr %this.addr, align 8
  %_data = getelementptr inbounds %"class.Imf_3_2::Array2D", ptr %this1, i32 0, i32 2
  %0 = load ptr, ptr %_data, align 8
  %1 = load i64, ptr %x.addr, align 8
  %_sizeY = getelementptr inbounds %"class.Imf_3_2::Array2D", ptr %this1, i32 0, i32 1
  %2 = load i64, ptr %_sizeY, align 8
  %mul = mul nsw i64 %1, %2
  %add.ptr = getelementptr inbounds ptr, ptr %0, i64 %mul
  ret ptr %add.ptr
}

; Function Attrs: mustprogress nounwind uwtable
define linkonce_odr hidden noundef i64 @_ZNK7Imf_3_27Array2DIPNS_10ImageLevelEE6heightEv(ptr noundef nonnull align 8 dereferenceable(24) %this) #5 comdat align 2 {
entry:
  %this.addr = alloca ptr, align 8
  store ptr %this, ptr %this.addr, align 8
  %this1 = load ptr, ptr %this.addr, align 8
  %_sizeX = getelementptr inbounds %"class.Imf_3_2::Array2D", ptr %this1, i32 0, i32 0
  %0 = load i64, ptr %_sizeX, align 8
  ret i64 %0
}

; Function Attrs: mustprogress nounwind uwtable
define linkonce_odr hidden noundef i64 @_ZNK7Imf_3_27Array2DIPNS_10ImageLevelEE5widthEv(ptr noundef nonnull align 8 dereferenceable(24) %this) #5 comdat align 2 {
entry:
  %this.addr = alloca ptr, align 8
  store ptr %this, ptr %this.addr, align 8
  %this1 = load ptr, ptr %this.addr, align 8
  %_sizeY = getelementptr inbounds %"class.Imf_3_2::Array2D", ptr %this1, i32 0, i32 1
  %0 = load i64, ptr %_sizeY, align 8
  ret i64 %0
}

; Function Attrs: mustprogress nounwind uwtable
define linkonce_odr hidden noundef ptr @_ZN7Imf_3_27Array2DIPNS_10ImageLevelEEixEl(ptr noundef nonnull align 8 dereferenceable(24) %this, i64 noundef %x) #5 comdat align 2 {
entry:
  %this.addr = alloca ptr, align 8
  %x.addr = alloca i64, align 8
  store ptr %this, ptr %this.addr, align 8
  store i64 %x, ptr %x.addr, align 8
  %this1 = load ptr, ptr %this.addr, align 8
  %_data = getelementptr inbounds %"class.Imf_3_2::Array2D", ptr %this1, i32 0, i32 2
  %0 = load ptr, ptr %_data, align 8
  %1 = load i64, ptr %x.addr, align 8
  %_sizeY = getelementptr inbounds %"class.Imf_3_2::Array2D", ptr %this1, i32 0, i32 1
  %2 = load i64, ptr %_sizeY, align 8
  %mul = mul nsw i64 %1, %2
  %add.ptr = getelementptr inbounds ptr, ptr %0, i64 %mul
  ret ptr %add.ptr
}

; Function Attrs: mustprogress uwtable
define hidden noundef zeroext i1 @_ZNK7Imf_3_25Image18levelNumberIsValidEii(ptr noundef nonnull align 8 dereferenceable(104) %this, i32 noundef %lx, i32 noundef %ly) #4 align 2 {
entry:
  %this.addr = alloca ptr, align 8
  %lx.addr = alloca i32, align 4
  %ly.addr = alloca i32, align 4
  store ptr %this, ptr %this.addr, align 8
  store i32 %lx, ptr %lx.addr, align 4
  store i32 %ly, ptr %ly.addr, align 4
  %this1 = load ptr, ptr %this.addr, align 8
  %0 = load i32, ptr %lx.addr, align 4
  %cmp = icmp sge i32 %0, 0
  br i1 %cmp, label %land.lhs.true, label %land.end

land.lhs.true:                                    ; preds = %entry
  %1 = load i32, ptr %lx.addr, align 4
  %conv = sext i32 %1 to i64
  %_levels = getelementptr inbounds %"class.Imf_3_2::Image", ptr %this1, i32 0, i32 5
  %call = call noundef i64 @_ZNK7Imf_3_27Array2DIPNS_10ImageLevelEE5widthEv(ptr noundef nonnull align 8 dereferenceable(24) %_levels)
  %cmp2 = icmp slt i64 %conv, %call
  br i1 %cmp2, label %land.lhs.true3, label %land.end

land.lhs.true3:                                   ; preds = %land.lhs.true
  %2 = load i32, ptr %ly.addr, align 4
  %cmp4 = icmp sge i32 %2, 0
  br i1 %cmp4, label %land.lhs.true5, label %land.end

land.lhs.true5:                                   ; preds = %land.lhs.true3
  %3 = load i32, ptr %ly.addr, align 4
  %conv6 = sext i32 %3 to i64
  %_levels7 = getelementptr inbounds %"class.Imf_3_2::Image", ptr %this1, i32 0, i32 5
  %call8 = call noundef i64 @_ZNK7Imf_3_27Array2DIPNS_10ImageLevelEE6heightEv(ptr noundef nonnull align 8 dereferenceable(24) %_levels7)
  %cmp9 = icmp slt i64 %conv6, %call8
  br i1 %cmp9, label %land.rhs, label %land.end

land.rhs:                                         ; preds = %land.lhs.true5
  %_levels10 = getelementptr inbounds %"class.Imf_3_2::Image", ptr %this1, i32 0, i32 5
  %4 = load i32, ptr %ly.addr, align 4
  %conv11 = sext i32 %4 to i64
  %call12 = call noundef ptr @_ZNK7Imf_3_27Array2DIPNS_10ImageLevelEEixEl(ptr noundef nonnull align 8 dereferenceable(24) %_levels10, i64 noundef %conv11)
  %5 = load i32, ptr %lx.addr, align 4
  %idxprom = sext i32 %5 to i64
  %arrayidx = getelementptr inbounds ptr, ptr %call12, i64 %idxprom
  %6 = load ptr, ptr %arrayidx, align 8
  %cmp13 = icmp ne ptr %6, null
  br label %land.end

land.end:                                         ; preds = %land.rhs, %land.lhs.true5, %land.lhs.true3, %land.lhs.true, %entry
  %7 = phi i1 [ false, %land.lhs.true5 ], [ false, %land.lhs.true3 ], [ false, %land.lhs.true ], [ false, %entry ], [ %cmp13, %land.rhs ]
  ret i1 %7
}

; Function Attrs: mustprogress uwtable
define noundef nonnull align 8 dereferenceable(40) ptr @_ZN7Imf_3_25Image5levelEii(ptr noundef nonnull align 8 dereferenceable(104) %this, i32 noundef %lx, i32 noundef %ly) unnamed_addr #4 align 2 personality ptr @__gxx_personality_v0 {
entry:
  %this.addr = alloca ptr, align 8
  %lx.addr = alloca i32, align 4
  %ly.addr = alloca i32, align 4
  %_iex_throw_s = alloca %"class.std::__cxx11::basic_stringstream", align 8
  %exn.slot = alloca ptr, align 8
  %ehselector.slot = alloca i32, align 4
  store ptr %this, ptr %this.addr, align 8
  store i32 %lx, ptr %lx.addr, align 4
  store i32 %ly, ptr %ly.addr, align 4
  %this1 = load ptr, ptr %this.addr, align 8
  %0 = load i32, ptr %lx.addr, align 4
  %1 = load i32, ptr %ly.addr, align 4
  %call = call noundef zeroext i1 @_ZNK7Imf_3_25Image18levelNumberIsValidEii(ptr noundef nonnull align 8 dereferenceable(104) %this1, i32 noundef %0, i32 noundef %1)
  br i1 %call, label %if.end, label %if.then

if.then:                                          ; preds = %entry
  br label %do.body

do.body:                                          ; preds = %if.then
  call void @_Z13iex_debugTrapv()
  call void @_ZNSt7__cxx1118basic_stringstreamIcSt11char_traitsIcESaIcEEC1Ev(ptr noundef nonnull align 8 dereferenceable(128) %_iex_throw_s)
  %add.ptr = getelementptr inbounds i8, ptr %_iex_throw_s, i64 16
  %call2 = invoke noundef nonnull align 8 dereferenceable(8) ptr @_ZStlsISt11char_traitsIcEERSt13basic_ostreamIcT_ES5_PKc(ptr noundef nonnull align 8 dereferenceable(8) %add.ptr, ptr noundef @.str.18)
          to label %invoke.cont unwind label %lpad

invoke.cont:                                      ; preds = %do.body
  %2 = load i32, ptr %lx.addr, align 4
  %call4 = invoke noundef nonnull align 8 dereferenceable(8) ptr @_ZNSolsEi(ptr noundef nonnull align 8 dereferenceable(8) %call2, i32 noundef %2)
          to label %invoke.cont3 unwind label %lpad

invoke.cont3:                                     ; preds = %invoke.cont
  %call6 = invoke noundef nonnull align 8 dereferenceable(8) ptr @_ZStlsISt11char_traitsIcEERSt13basic_ostreamIcT_ES5_PKc(ptr noundef nonnull align 8 dereferenceable(8) %call4, ptr noundef @.str.2)
          to label %invoke.cont5 unwind label %lpad

invoke.cont5:                                     ; preds = %invoke.cont3
  %3 = load i32, ptr %ly.addr, align 4
  %call8 = invoke noundef nonnull align 8 dereferenceable(8) ptr @_ZNSolsEi(ptr noundef nonnull align 8 dereferenceable(8) %call6, i32 noundef %3)
          to label %invoke.cont7 unwind label %lpad

invoke.cont7:                                     ; preds = %invoke.cont5
  %call10 = invoke noundef nonnull align 8 dereferenceable(8) ptr @_ZStlsISt11char_traitsIcEERSt13basic_ostreamIcT_ES5_PKc(ptr noundef nonnull align 8 dereferenceable(8) %call8, ptr noundef @.str.3)
          to label %invoke.cont9 unwind label %lpad

invoke.cont9:                                     ; preds = %invoke.cont7
  %exception = call ptr @__cxa_allocate_exception(i64 72) #3
  invoke void @_ZN7Iex_3_26ArgExcC1ERNSt7__cxx1118basic_stringstreamIcSt11char_traitsIcESaIcEEE(ptr noundef nonnull align 8 dereferenceable(72) %exception, ptr noundef nonnull align 8 dereferenceable(128) %_iex_throw_s)
          to label %invoke.cont12 unwind label %lpad11

invoke.cont12:                                    ; preds = %invoke.cont9
  invoke void @__cxa_throw(ptr %exception, ptr @_ZTIN7Iex_3_26ArgExcE, ptr @_ZN7Iex_3_26ArgExcD1Ev) #17
          to label %unreachable unwind label %lpad

lpad:                                             ; preds = %invoke.cont12, %invoke.cont7, %invoke.cont5, %invoke.cont3, %invoke.cont, %do.body
  %4 = landingpad { ptr, i32 }
          cleanup
  %5 = extractvalue { ptr, i32 } %4, 0
  store ptr %5, ptr %exn.slot, align 8
  %6 = extractvalue { ptr, i32 } %4, 1
  store i32 %6, ptr %ehselector.slot, align 4
  br label %ehcleanup

lpad11:                                           ; preds = %invoke.cont9
  %7 = landingpad { ptr, i32 }
          cleanup
  %8 = extractvalue { ptr, i32 } %7, 0
  store ptr %8, ptr %exn.slot, align 8
  %9 = extractvalue { ptr, i32 } %7, 1
  store i32 %9, ptr %ehselector.slot, align 4
  call void @__cxa_free_exception(ptr %exception) #3
  br label %ehcleanup

ehcleanup:                                        ; preds = %lpad11, %lpad
  call void @_ZNSt7__cxx1118basic_stringstreamIcSt11char_traitsIcESaIcEED1Ev(ptr noundef nonnull align 8 dereferenceable(128) %_iex_throw_s) #3
  br label %eh.resume

do.end:                                           ; No predecessors!
  br label %if.end

if.end:                                           ; preds = %do.end, %entry
  %_levels = getelementptr inbounds %"class.Imf_3_2::Image", ptr %this1, i32 0, i32 5
  %10 = load i32, ptr %ly.addr, align 4
  %conv = sext i32 %10 to i64
  %call13 = call noundef ptr @_ZN7Imf_3_27Array2DIPNS_10ImageLevelEEixEl(ptr noundef nonnull align 8 dereferenceable(24) %_levels, i64 noundef %conv)
  %11 = load i32, ptr %lx.addr, align 4
  %idxprom = sext i32 %11 to i64
  %arrayidx = getelementptr inbounds ptr, ptr %call13, i64 %idxprom
  %12 = load ptr, ptr %arrayidx, align 8
  ret ptr %12

eh.resume:                                        ; preds = %ehcleanup
  %exn = load ptr, ptr %exn.slot, align 8
  %sel = load i32, ptr %ehselector.slot, align 4
  %lpad.val = insertvalue { ptr, i32 } poison, ptr %exn, 0
  %lpad.val14 = insertvalue { ptr, i32 } %lpad.val, i32 %sel, 1
  resume { ptr, i32 } %lpad.val14

unreachable:                                      ; preds = %invoke.cont12
  unreachable
}